target datalayout = "e-m:e-p270:32:32-p271:32:32-p272:64:64-i64:64-i128:128-f80:128-n8:16:32:64-S128"
target triple = "x86_64-pc-linux-gnu"

@.str.1 = private unnamed_addr constant [34 x i8] c"../openssl/crypto/conf/conf_def.c\00", align 1
@.str.16 = private unnamed_addr constant [3 x i8] c"on\00", align 1
@.str.17 = private unnamed_addr constant [5 x i8] c"true\00", align 1
@.str.18 = private unnamed_addr constant [4 x i8] c"off\00", align 1
@.str.19 = private unnamed_addr constant [6 x i8] c"false\00", align 1
@__func__.parsebool = private unnamed_addr constant [10 x i8] c"parsebool\00", align 1

; Function Attrs: nounwind uwtable
define internal i32 @parsebool(ptr noundef %0, ptr noundef %1) #0 {
  %3 = alloca i32, align 4
  %4 = alloca ptr, align 8
  %5 = alloca ptr, align 8
  store ptr %0, ptr %4, align 8, !tbaa !29
  store ptr %1, ptr %5, align 8, !tbaa !65
  %6 = load ptr, ptr %4, align 8, !tbaa !29
  %7 = call i32 @OPENSSL_strcasecmp(ptr noundef %6, ptr noundef @.str.16)
  %8 = icmp eq i32 %7, 0
  br i1 %8, label %13, label %9

9:                                                ; preds = %2
  %10 = load ptr, ptr %4, align 8, !tbaa !29
  %11 = call i32 @OPENSSL_strcasecmp(ptr noundef %10, ptr noundef @.str.17)
  %12 = icmp eq i32 %11, 0
  br i1 %12, label %13, label %15

13:                                               ; preds = %9, %2
  %14 = load ptr, ptr %5, align 8, !tbaa !65
  store i32 1, ptr %14, align 4, !tbaa !23
  br label %27

15:                                               ; preds = %9
  %16 = load ptr, ptr %4, align 8, !tbaa !29
  %17 = call i32 @OPENSSL_strcasecmp(ptr noundef %16, ptr noundef @.str.18)
  %18 = icmp eq i32 %17, 0
  br i1 %18, label %23, label %19

19:                                               ; preds = %15
  %20 = load ptr, ptr %4, align 8, !tbaa !29
  %21 = call i32 @OPENSSL_strcasecmp(ptr noundef %20, ptr noundef @.str.19)
  %22 = icmp eq i32 %21, 0
  br i1 %22, label %23, label %25

23:                                               ; preds = %19, %15
  %24 = load ptr, ptr %5, align 8, !tbaa !65
  store i32 0, ptr %24, align 4, !tbaa !23
  br label %26

25:                                               ; preds = %19
  call void @ERR_new()
  call void @ERR_set_debug(ptr noundef @.str.1, i32 noundef 202, ptr noundef @__func__.parsebool)
  call void (i32, i32, ptr, ...) @ERR_set_error(i32 noundef 14, i32 noundef 122, ptr noundef null)
  store i32 0, ptr %3, align 4
  br label %28

26:                                               ; preds = %23
  br label %27

27:                                               ; preds = %26, %13
  store i32 1, ptr %3, align 4
  br label %28

28:                                               ; preds = %27, %25
  %29 = load i32, ptr %3, align 4
  ret i32 %29
}