; Function Attrs: nounwind uwtable
define internal fastcc range(i32 0, 2) i32 @parsebool(ptr noundef %0, ptr noundef writeonly captures(none) %1) unnamed_addr #1 {
  %3 = tail call i32 @OPENSSL_strcasecmp(ptr noundef %0, ptr noundef nonnull @.str.16) #15
  %4 = icmp eq i32 %3, 0
  br i1 %4, label %15, label %5

5:                                                ; preds = %2
  %6 = tail call i32 @OPENSSL_strcasecmp(ptr noundef %0, ptr noundef nonnull @.str.17) #15
  %7 = icmp eq i32 %6, 0
  br i1 %7, label %15, label %8

8:                                                ; preds = %5
  %9 = tail call i32 @OPENSSL_strcasecmp(ptr noundef %0, ptr noundef nonnull @.str.18) #15
  %10 = icmp eq i32 %9, 0
  br i1 %10, label %15, label %11

11:                                               ; preds = %8
  %12 = tail call i32 @OPENSSL_strcasecmp(ptr noundef %0, ptr noundef nonnull @.str.19) #15
  %13 = icmp eq i32 %12, 0
  br i1 %13, label %15, label %14

14:                                               ; preds = %11
  tail call void @ERR_new() #15
  tail call void @ERR_set_debug(ptr noundef nonnull @.str.1, i32 noundef 202, ptr noundef nonnull @__func__.parsebool) #15
  tail call void (i32, i32, ptr, ...) @ERR_set_error(i32 noundef 14, i32 noundef 122, ptr noundef null) #15
  br label %16

15:                                               ; preds = %8, %11, %2, %5
  %storemerge = phi i32 [ 1, %5 ], [ 1, %2 ], [ 0, %11 ], [ 0, %8 ]
  store i32 %storemerge, ptr %1, align 4, !tbaa !47
  br label %16

16:                                               ; preds = %15, %14
  %.0 = phi i32 [ 1, %15 ], [ 0, %14 ]
  ret i32 %.0
}